(dp1
(Vv2exSpider
p2
S'success'
p3
tp4
ccopy_reg
_reconstructor
p5
(cpyspider.libs.counter
TotalCounter
p6
c__builtin__
object
p7
NtRp8
(dp9
S'cnt'
p10
I3
sbs(VZhihuSpider
S'success'
tp11
g5
(g6
g7
NtRp12
(dp13
g10
I9
sbs.